; Function Attrs: mustprogress nofree norecurse nosync nounwind willreturn memory(read, inaccessiblemem: none) uwtable
define hidden noundef zeroext i1 @_ZNK19OpenColorIO_v2_4dev11GammaOpData24isAlphaComponentIdentityEv(ptr nocapture noundef nonnull readonly align 8 dereferenceable(272) %this) local_unnamed_addr #7 align 2 {
entry:
  %m_alphaParams = getelementptr inbounds i8, ptr %this, i64 248
  %m_style.i = getelementptr inbounds i8, ptr %this, i64 168
  %0 = load i32, ptr %m_style.i, align 8
  switch i32 %0, label %_ZN19OpenColorIO_v2_4dev11GammaOpData20isIdentityParametersERKSt6vectorIdSaIdEENS0_5StyleE.exit [
    i32 0, label %sw.bb.i
    i32 1, label %sw.bb.i
    i32 2, label %sw.bb.i
    i32 3, label %sw.bb.i
    i32 4, label %sw.bb.i
    i32 5, label %sw.bb.i
    i32 6, label %sw.bb2.i
    i32 7, label %sw.bb2.i
    i32 8, label %sw.bb2.i
    i32 9, label %sw.bb2.i
  ]

sw.bb.i:                                          ; preds = %entry, %entry, %entry, %entry, %entry, %entry
  %_M_finish.i.i = getelementptr inbounds i8, ptr %this, i64 256
  %1 = load ptr, ptr %_M_finish.i.i, align 8
  %2 = load ptr, ptr %m_alphaParams, align 8
  %sub.ptr.lhs.cast.i.i = ptrtoint ptr %1 to i64
  %sub.ptr.rhs.cast.i.i = ptrtoint ptr %2 to i64
  %sub.ptr.sub.i.i = sub i64 %sub.ptr.lhs.cast.i.i, %sub.ptr.rhs.cast.i.i
  %cmp.i = icmp eq i64 %sub.ptr.sub.i.i, 8
  br i1 %cmp.i, label %return.sink.split.i, label %_ZN19OpenColorIO_v2_4dev11GammaOpData20isIdentityParametersERKSt6vectorIdSaIdEENS0_5StyleE.exit

sw.bb2.i:                                         ; preds = %entry, %entry, %entry, %entry
  %_M_finish.i5.i = getelementptr inbounds i8, ptr %this, i64 256
  %3 = load ptr, ptr %_M_finish.i5.i, align 8
  %4 = load ptr, ptr %m_alphaParams, align 8
  %sub.ptr.lhs.cast.i6.i = ptrtoint ptr %3 to i64
  %sub.ptr.rhs.cast.i7.i = ptrtoint ptr %4 to i64
  %sub.ptr.sub.i8.i = sub i64 %sub.ptr.lhs.cast.i6.i, %sub.ptr.rhs.cast.i7.i
  %cmp4.i = icmp eq i64 %sub.ptr.sub.i8.i, 16
  br i1 %cmp4.i, label %land.rhs5.i, label %_ZN19OpenColorIO_v2_4dev11GammaOpData20isIdentityParametersERKSt6vectorIdSaIdEENS0_5StyleE.exit

land.rhs5.i:                                      ; preds = %sw.bb2.i
  %5 = load double, ptr %4, align 8
  %cmp.i10.i = fcmp oeq double %5, 1.000000e+00
  br i1 %cmp.i10.i, label %land.rhs.i.i, label %_ZN19OpenColorIO_v2_4dev11GammaOpData20isIdentityParametersERKSt6vectorIdSaIdEENS0_5StyleE.exit

land.rhs.i.i:                                     ; preds = %land.rhs5.i
  %add.ptr.i.i.i = getelementptr inbounds i8, ptr %4, i64 8
  br label %return.sink.split.i

return.sink.split.i:                              ; preds = %land.rhs.i.i, %sw.bb.i
  %add.ptr.i.i.sink.i = phi ptr [ %add.ptr.i.i.i, %land.rhs.i.i ], [ %2, %sw.bb.i ]
  %.sink11.i = phi double [ 0.000000e+00, %land.rhs.i.i ], [ 1.000000e+00, %sw.bb.i ]
  %6 = load double, ptr %add.ptr.i.i.sink.i, align 8
  %cmp2.i.i = fcmp oeq double %6, %.sink11.i
  br label %_ZN19OpenColorIO_v2_4dev11GammaOpData20isIdentityParametersERKSt6vectorIdSaIdEENS0_5StyleE.exit

_ZN19OpenColorIO_v2_4dev11GammaOpData20isIdentityParametersERKSt6vectorIdSaIdEENS0_5StyleE.exit: ; preds = %entry, %sw.bb.i, %sw.bb2.i, %land.rhs5.i, %return.sink.split.i
  %retval.0.i = phi i1 [ false, %sw.bb.i ], [ false, %sw.bb2.i ], [ false, %entry ], [ false, %land.rhs5.i ], [ %cmp2.i.i, %return.sink.split.i ]
  ret i1 %retval.0.i
}